target datalayout = "e-m:e-p270:32:32-p271:32:32-p272:64:64-i64:64-i128:128-f80:128-n8:16:32:64-S128"
target triple = "x86_64-pc-linux-gnu"

%struct._zend_array = type { %struct._zend_refcounted_h, %union.anon.4, i32, %union.anon.6, i32, i32, i32, i32, i64, ptr }
%struct._zend_refcounted_h = type { i32, %union.anon.3 }
%union.anon.3 = type { i32 }
%union.anon.4 = type { i32 }
%union.anon.6 = type { ptr }
%struct._zval_struct = type { %union._zend_value, %union.anon, %union.anon.2 }
%union._zend_value = type { i64 }
%union.anon = type { i32 }
%union.anon.2 = type { i32 }
%struct._zend_object = type { %struct._zend_refcounted_h, i32, ptr, ptr, ptr, [1 x %struct._zval_struct] }
%struct._zend_reference = type { %struct._zend_refcounted_h, %struct._zval_struct, %union.zend_property_info_source_list }
%union.zend_property_info_source_list = type { ptr }
%struct.anon.0 = type { i8, i8, %union.anon.1 }
%union.anon.1 = type { i16 }
%struct.php_serialize_data = type { %struct._zend_array, i32 }

; Function Attrs: nounwind uwtable
define internal i64 @php_add_var_hash(ptr noundef %0, ptr noundef %1, i1 noundef zeroext %2) #0 {
  %4 = alloca ptr, align 8
  %5 = alloca ptr, align 8
  %6 = alloca ptr, align 8
  %7 = alloca ptr, align 8
  %8 = alloca ptr, align 8
  %9 = alloca ptr, align 8
  %10 = alloca ptr, align 8
  %11 = alloca ptr, align 8
  %12 = alloca i64, align 8
  %13 = alloca ptr, align 8
  %14 = alloca ptr, align 8
  %15 = alloca i8, align 1
  %16 = alloca ptr, align 8
  %17 = alloca i64, align 8
  %18 = alloca i8, align 1
  %19 = alloca %struct._zval_struct, align 8
  %20 = alloca ptr, align 8
  store ptr %0, ptr %13, align 8
  store ptr %1, ptr %14, align 8
  %21 = zext i1 %2 to i8
  store i8 %21, ptr %15, align 1
  %22 = load ptr, ptr %14, align 8
  store ptr %22, ptr %9, align 8
  %23 = load ptr, ptr %9, align 8
  %24 = getelementptr inbounds %struct._zval_struct, ptr %23, i32 0, i32 1
  %25 = load i8, ptr %24, align 8
  %26 = zext i8 %25 to i32
  %27 = icmp eq i32 %26, 10
  %28 = zext i1 %27 to i8
  store i8 %28, ptr %18, align 1
  %29 = load ptr, ptr %13, align 8
  %30 = getelementptr inbounds %struct.php_serialize_data, ptr %29, i32 0, i32 1
  %31 = load i32, ptr %30, align 8
  %32 = add i32 %31, 1
  store i32 %32, ptr %30, align 8
  %33 = load i8, ptr %18, align 1
  %34 = trunc i8 %33 to i1
  br i1 %34, label %35, label %36

35:                                               ; preds = %3
  br label %74

36:                                               ; preds = %3
  %37 = load ptr, ptr %14, align 8
  store ptr %37, ptr %10, align 8
  %38 = load ptr, ptr %10, align 8
  %39 = getelementptr inbounds %struct._zval_struct, ptr %38, i32 0, i32 1
  %40 = load i8, ptr %39, align 8
  %41 = zext i8 %40 to i32
  %42 = icmp ne i32 %41, 8
  br i1 %42, label %43, label %44

43:                                               ; preds = %36
  store i64 0, ptr %12, align 8
  br label %153

44:                                               ; preds = %36
  %45 = load i8, ptr %15, align 1
  %46 = trunc i8 %45 to i1
  br i1 %46, label %72, label %47

47:                                               ; preds = %44
  %48 = load ptr, ptr %14, align 8
  store ptr %48, ptr %8, align 8
  %49 = load ptr, ptr %8, align 8
  %50 = load ptr, ptr %49, align 8
  store ptr %50, ptr %7, align 8
  %51 = load ptr, ptr %7, align 8
  %52 = load i32, ptr %51, align 4
  %53 = icmp eq i32 %52, 1
  br i1 %53, label %54, label %72

54:                                               ; preds = %47
  %55 = load ptr, ptr %14, align 8
  %56 = getelementptr inbounds %struct._zval_struct, ptr %55, i32 0, i32 0
  %57 = load ptr, ptr %56, align 8
  %58 = getelementptr inbounds %struct._zend_object, ptr %57, i32 0, i32 4
  %59 = load ptr, ptr %58, align 8
  %60 = icmp eq ptr %59, null
  br i1 %60, label %71, label %61

61:                                               ; preds = %54
  %62 = load ptr, ptr %14, align 8
  %63 = getelementptr inbounds %struct._zval_struct, ptr %62, i32 0, i32 0
  %64 = load ptr, ptr %63, align 8
  %65 = getelementptr inbounds %struct._zend_object, ptr %64, i32 0, i32 4
  %66 = load ptr, ptr %65, align 8
  %67 = getelementptr inbounds %struct._zend_array, ptr %66, i32 0, i32 0
  store ptr %67, ptr %6, align 8
  %68 = load ptr, ptr %6, align 8
  %69 = load i32, ptr %68, align 4
  %70 = icmp eq i32 %69, 1
  br i1 %70, label %71, label %72

71:                                               ; preds = %61, %54
  store i64 0, ptr %12, align 8
  br label %153

72:                                               ; preds = %61, %47, %44
  br label %73

73:                                               ; preds = %72
  br label %74

74:                                               ; preds = %73, %35
  %75 = load i8, ptr %18, align 1
  %76 = trunc i8 %75 to i1
  br i1 %76, label %77, label %92

77:                                               ; preds = %74
  %78 = load ptr, ptr %14, align 8
  %79 = getelementptr inbounds %struct._zval_struct, ptr %78, i32 0, i32 0
  %80 = load ptr, ptr %79, align 8
  %81 = getelementptr inbounds %struct._zend_reference, ptr %80, i32 0, i32 1
  store ptr %81, ptr %11, align 8
  %82 = load ptr, ptr %11, align 8
  %83 = getelementptr inbounds %struct._zval_struct, ptr %82, i32 0, i32 1
  %84 = load i8, ptr %83, align 8
  %85 = zext i8 %84 to i32
  %86 = icmp eq i32 %85, 8
  br i1 %86, label %87, label %92

87:                                               ; preds = %77
  %88 = load ptr, ptr %14, align 8
  %89 = getelementptr inbounds %struct._zval_struct, ptr %88, i32 0, i32 0
  %90 = load ptr, ptr %89, align 8
  %91 = getelementptr inbounds %struct._zend_reference, ptr %90, i32 0, i32 1
  store ptr %91, ptr %14, align 8
  br label %92

92:                                               ; preds = %87, %77, %74
  %93 = load ptr, ptr %14, align 8
  %94 = getelementptr inbounds %struct._zval_struct, ptr %93, i32 0, i32 0
  %95 = load ptr, ptr %94, align 8
  %96 = ptrtoint ptr %95 to i64
  store i64 %96, ptr %17, align 8
  %97 = load ptr, ptr %13, align 8
  %98 = getelementptr inbounds %struct.php_serialize_data, ptr %97, i32 0, i32 0
  %99 = load i64, ptr %17, align 8
  %100 = call ptr @zend_hash_index_find(ptr noundef %98, i64 noundef %99)
  store ptr %100, ptr %16, align 8
  %101 = load ptr, ptr %16, align 8
  %102 = icmp ne ptr %101, null
  br i1 %102, label %103, label %120

103:                                              ; preds = %92
  %104 = load i8, ptr %18, align 1
  %105 = trunc i8 %104 to i1
  br i1 %105, label %106, label %116

106:                                              ; preds = %103
  %107 = load ptr, ptr %16, align 8
  %108 = getelementptr inbounds %struct._zval_struct, ptr %107, i32 0, i32 0
  %109 = load i64, ptr %108, align 8
  %110 = icmp ne i64 %109, -1
  br i1 %110, label %111, label %116

111:                                              ; preds = %106
  %112 = load ptr, ptr %13, align 8
  %113 = getelementptr inbounds %struct.php_serialize_data, ptr %112, i32 0, i32 1
  %114 = load i32, ptr %113, align 8
  %115 = sub i32 %114, 1
  store i32 %115, ptr %113, align 8
  br label %116

116:                                              ; preds = %111, %106, %103
  %117 = load ptr, ptr %16, align 8
  %118 = getelementptr inbounds %struct._zval_struct, ptr %117, i32 0, i32 0
  %119 = load i64, ptr %118, align 8
  store i64 %119, ptr %12, align 8
  br label %153

120:                                              ; preds = %92
  br label %121

121:                                              ; preds = %120
  store ptr %19, ptr %20, align 8
  %122 = load ptr, ptr %13, align 8
  %123 = getelementptr inbounds %struct.php_serialize_data, ptr %122, i32 0, i32 1
  %124 = load i32, ptr %123, align 8
  %125 = zext i32 %124 to i64
  %126 = load ptr, ptr %20, align 8
  %127 = getelementptr inbounds %struct._zval_struct, ptr %126, i32 0, i32 0
  store i64 %125, ptr %127, align 8
  %128 = load ptr, ptr %20, align 8
  %129 = getelementptr inbounds %struct._zval_struct, ptr %128, i32 0, i32 1
  store i32 4, ptr %129, align 8
  br label %130

130:                                              ; preds = %121
  %131 = load ptr, ptr %13, align 8
  %132 = getelementptr inbounds %struct.php_serialize_data, ptr %131, i32 0, i32 0
  %133 = load i64, ptr %17, align 8
  %134 = call ptr @zend_hash_index_add_new(ptr noundef %132, i64 noundef %133, ptr noundef %19)
  %135 = load ptr, ptr %13, align 8
  %136 = getelementptr inbounds %struct.php_serialize_data, ptr %135, i32 0, i32 0
  %137 = load i64, ptr %17, align 8
  %138 = add i64 %137, 1
  %139 = load ptr, ptr %14, align 8
  %140 = call ptr @zend_hash_index_add_new(ptr noundef %136, i64 noundef %138, ptr noundef %139)
  %141 = load ptr, ptr %14, align 8
  store ptr %141, ptr %5, align 8
  %142 = load ptr, ptr %5, align 8
  %143 = getelementptr inbounds %struct._zval_struct, ptr %142, i32 0, i32 1
  %144 = getelementptr inbounds %struct.anon.0, ptr %143, i32 0, i32 1
  %145 = load i8, ptr %144, align 1
  %146 = zext i8 %145 to i32
  %147 = icmp ne i32 %146, 0
  call void @llvm.assume(i1 %147)
  %148 = load ptr, ptr %5, align 8
  %149 = load ptr, ptr %148, align 8
  store ptr %149, ptr %4, align 8
  %150 = load ptr, ptr %4, align 8
  %151 = load i32, ptr %150, align 4
  %152 = add i32 %151, 1
  store i32 %152, ptr %150, align 4
  store i64 0, ptr %12, align 8
  br label %153

153:                                              ; preds = %130, %116, %71, %43
  %154 = load i64, ptr %12, align 8
  ret i64 %154
}