; Function Attrs: nounwind uwtable
define internal fastcc i64 @php_add_var_hash(ptr noundef %0, ptr noundef %1, i1 noundef zeroext %2) unnamed_addr #0 {
  %4 = alloca %struct._zval_struct, align 8
  %5 = getelementptr inbounds i8, ptr %1, i64 8
  %6 = load i8, ptr %5, align 8
  %7 = icmp eq i8 %6, 10
  %8 = getelementptr inbounds i8, ptr %0, i64 56
  %9 = load i32, ptr %8, align 8
  %10 = add i32 %9, 1
  store i32 %10, ptr %8, align 8
  br i1 %7, label %.thread, label %11

11:                                               ; preds = %3
  %12 = load i8, ptr %5, align 8
  %.not = icmp eq i8 %12, 8
  br i1 %.not, label %13, label %56

13:                                               ; preds = %11
  %.pre = load ptr, ptr %1, align 8
  br i1 %2, label %24, label %14

14:                                               ; preds = %13
  %15 = load i32, ptr %.pre, align 4
  %16 = icmp eq i32 %15, 1
  br i1 %16, label %17, label %24

17:                                               ; preds = %14
  %18 = getelementptr inbounds i8, ptr %.pre, i64 32
  %19 = load ptr, ptr %18, align 8
  %20 = icmp eq ptr %19, null
  br i1 %20, label %56, label %21

21:                                               ; preds = %17
  %22 = load i32, ptr %19, align 4
  %23 = icmp eq i32 %22, 1
  br i1 %23, label %56, label %24

24:                                               ; preds = %13, %14, %21
  %25 = ptrtoint ptr %.pre to i64
  %26 = tail call ptr @zend_hash_index_find(ptr noundef nonnull %0, i64 noundef %25) #12
  %.not40 = icmp eq ptr %26, null
  br i1 %.not40, label %42, label %39

.thread:                                          ; preds = %3
  %27 = load ptr, ptr %1, align 8
  %28 = getelementptr inbounds i8, ptr %27, i64 16
  %29 = load i8, ptr %28, align 8
  %30 = icmp eq i8 %29, 8
  %31 = getelementptr inbounds i8, ptr %27, i64 8
  %spec.select = select i1 %30, ptr %31, ptr %1
  %32 = load ptr, ptr %spec.select, align 8
  %33 = ptrtoint ptr %32 to i64
  %34 = tail call ptr @zend_hash_index_find(ptr noundef nonnull %0, i64 noundef %33) #12
  %.not4043 = icmp eq ptr %34, null
  br i1 %.not4043, label %42, label %.thread45

.thread45:                                        ; preds = %.thread
  %35 = load i64, ptr %34, align 8
  %.not41 = icmp eq i64 %35, -1
  br i1 %.not41, label %39, label %36

36:                                               ; preds = %.thread45
  %37 = load i32, ptr %8, align 8
  %38 = add i32 %37, -1
  store i32 %38, ptr %8, align 8
  br label %39

39:                                               ; preds = %24, %36, %.thread45
  %40 = phi ptr [ %34, %36 ], [ %34, %.thread45 ], [ %26, %24 ]
  %41 = load i64, ptr %40, align 8
  br label %56

42:                                               ; preds = %.thread, %24
  %43 = phi i64 [ %33, %.thread ], [ %25, %24 ]
  %.03744 = phi ptr [ %spec.select, %.thread ], [ %1, %24 ]
  %44 = load i32, ptr %8, align 8
  %45 = zext i32 %44 to i64
  store i64 %45, ptr %4, align 8
  %46 = getelementptr inbounds i8, ptr %4, i64 8
  store i32 4, ptr %46, align 8
  %47 = call ptr @zend_hash_index_add_new(ptr noundef nonnull %0, i64 noundef %43, ptr noundef nonnull %4) #12
  %48 = add i64 %43, 1
  %49 = call ptr @zend_hash_index_add_new(ptr noundef nonnull %0, i64 noundef %48, ptr noundef nonnull %.03744) #12
  %50 = getelementptr inbounds i8, ptr %.03744, i64 9
  %51 = load i8, ptr %50, align 1
  %52 = icmp ne i8 %51, 0
  call void @llvm.assume(i1 %52)
  %53 = load ptr, ptr %.03744, align 8
  %54 = load i32, ptr %53, align 4
  %55 = add i32 %54, 1
  store i32 %55, ptr %53, align 4
  br label %56

56:                                               ; preds = %17, %21, %11, %42, %39
  %.0 = phi i64 [ %41, %39 ], [ 0, %42 ], [ 0, %11 ], [ 0, %21 ], [ 0, %17 ]
  ret i64 %.0
}